target datalayout = "e-m:e-p270:32:32-p271:32:32-p272:64:64-i64:64-i128:128-f80:128-n8:16:32:64-S128"
target triple = "x86_64-pc-linux-gnu"

%struct.AVFilter = type { ptr, ptr, ptr, ptr, ptr, i32 }

@.str.17 = private unnamed_addr constant [186 x i8] c"Filters:\0A  T.. = Timeline support\0A  .S. = Slice threading\0A  A = Audio input/output\0A  V = Video input/output\0A  N = Dynamic number and/or type of input/output\0A  | = Source or sink filter\0A\00", align 1
@.str.18 = private unnamed_addr constant [22 x i8] c" %c%c %-17s %-10s %s\0A\00", align 1

; Function Attrs: nounwind uwtable
define internal signext i8 @get_media_type_char(i32 noundef %0) #0 {
  %2 = alloca i8, align 1
  %3 = alloca i32, align 4
  store i32 %0, ptr %3, align 4, !tbaa !10
  %4 = load i32, ptr %3, align 4, !tbaa !10
  switch i32 %4, label %10 [
    i32 0, label %5
    i32 1, label %6
    i32 2, label %7
    i32 3, label %8
    i32 4, label %9
  ]

5:                                                ; preds = %1
  store i8 86, ptr %2, align 1
  br label %11

6:                                                ; preds = %1
  store i8 65, ptr %2, align 1
  br label %11

7:                                                ; preds = %1
  store i8 68, ptr %2, align 1
  br label %11

8:                                                ; preds = %1
  store i8 83, ptr %2, align 1
  br label %11

9:                                                ; preds = %1
  store i8 84, ptr %2, align 1
  br label %11

10:                                               ; preds = %1
  store i8 63, ptr %2, align 1
  br label %11

11:                                               ; preds = %10, %9, %8, %7, %6, %5
  %12 = load i8, ptr %2, align 1
  ret i8 %12
}

; Function Attrs: nounwind uwtable
define i32 @show_filters(ptr noundef %0, ptr noundef %1, ptr noundef %2) #0 {
  %4 = alloca ptr, align 8
  %5 = alloca ptr, align 8
  %6 = alloca ptr, align 8
  %7 = alloca ptr, align 8
  %8 = alloca [64 x i8], align 16
  %9 = alloca ptr, align 8
  %10 = alloca ptr, align 8
  %11 = alloca i32, align 4
  %12 = alloca i32, align 4
  %13 = alloca ptr, align 8
  %14 = alloca i32, align 4
  store ptr %0, ptr %4, align 8, !tbaa !4
  store ptr %1, ptr %5, align 8, !tbaa !8
  store ptr %2, ptr %6, align 8, !tbaa !8
  call void @llvm.lifetime.start.p0(i64 8, ptr %7) #11
  store ptr null, ptr %7, align 8, !tbaa !52
  call void @llvm.lifetime.start.p0(i64 64, ptr %8) #11
  call void @llvm.lifetime.start.p0(i64 8, ptr %9) #11
  call void @llvm.lifetime.start.p0(i64 8, ptr %10) #11
  store ptr null, ptr %10, align 8, !tbaa !4
  call void @llvm.lifetime.start.p0(i64 4, ptr %11) #11
  call void @llvm.lifetime.start.p0(i64 4, ptr %12) #11
  call void @llvm.lifetime.start.p0(i64 8, ptr %13) #11
  %15 = call i32 (ptr, ...) @printf(ptr noundef @.str.17)
  br label %16

16:                                               ; preds = %102, %3
  %17 = call ptr @av_filter_iterate(ptr noundef %10)
  store ptr %17, ptr %7, align 8, !tbaa !52
  %18 = icmp ne ptr %17, null
  br i1 %18, label %19, label %124

19:                                               ; preds = %16
  %20 = getelementptr inbounds [64 x i8], ptr %8, i64 0, i64 0
  store ptr %20, ptr %9, align 8, !tbaa !8
  store i32 0, ptr %11, align 4, !tbaa !10
  br label %21

21:                                               ; preds = %99, %19
  %22 = load i32, ptr %11, align 4, !tbaa !10
  %23 = icmp slt i32 %22, 2
  br i1 %23, label %24, label %102

24:                                               ; preds = %21
  call void @llvm.lifetime.start.p0(i64 4, ptr %14) #11
  %25 = load i32, ptr %11, align 4, !tbaa !10
  %26 = icmp ne i32 %25, 0
  br i1 %26, label %27, label %32

27:                                               ; preds = %24
  %28 = load ptr, ptr %9, align 8, !tbaa !8
  %29 = getelementptr inbounds nuw i8, ptr %28, i32 1
  store ptr %29, ptr %9, align 8, !tbaa !8
  store i8 45, ptr %28, align 1, !tbaa !17
  %30 = load ptr, ptr %9, align 8, !tbaa !8
  %31 = getelementptr inbounds nuw i8, ptr %30, i32 1
  store ptr %31, ptr %9, align 8, !tbaa !8
  store i8 62, ptr %30, align 1, !tbaa !17
  br label %32

32:                                               ; preds = %27, %24
  %33 = load i32, ptr %11, align 4, !tbaa !10
  %34 = icmp ne i32 %33, 0
  br i1 %34, label %35, label %39

35:                                               ; preds = %32
  %36 = load ptr, ptr %7, align 8, !tbaa !52
  %37 = getelementptr inbounds nuw %struct.AVFilter, ptr %36, i32 0, i32 3
  %38 = load ptr, ptr %37, align 8, !tbaa !61
  br label %43

39:                                               ; preds = %32
  %40 = load ptr, ptr %7, align 8, !tbaa !52
  %41 = getelementptr inbounds nuw %struct.AVFilter, ptr %40, i32 0, i32 2
  %42 = load ptr, ptr %41, align 8, !tbaa !59
  br label %43

43:                                               ; preds = %39, %35
  %44 = phi ptr [ %38, %35 ], [ %42, %39 ]
  store ptr %44, ptr %13, align 8, !tbaa !98
  %45 = load ptr, ptr %7, align 8, !tbaa !52
  %46 = load i32, ptr %11, align 4, !tbaa !10
  %47 = call i32 @avfilter_filter_pad_count(ptr noundef %45, i32 noundef %46)
  store i32 %47, ptr %14, align 4, !tbaa !10
  store i32 0, ptr %12, align 4, !tbaa !10
  br label %48

48:                                               ; preds = %66, %43
  %49 = load i32, ptr %12, align 4, !tbaa !10
  %50 = load i32, ptr %14, align 4, !tbaa !10
  %51 = icmp ult i32 %49, %50
  br i1 %51, label %52, label %69

52:                                               ; preds = %48
  %53 = load ptr, ptr %9, align 8, !tbaa !8
  %54 = getelementptr inbounds [64 x i8], ptr %8, i64 0, i64 0
  %55 = getelementptr inbounds nuw i8, ptr %54, i64 64
  %56 = getelementptr inbounds i8, ptr %55, i64 -4
  %57 = icmp uge ptr %53, %56
  br i1 %57, label %58, label %59

58:                                               ; preds = %52
  br label %69

59:                                               ; preds = %52
  %60 = load ptr, ptr %13, align 8, !tbaa !98
  %61 = load i32, ptr %12, align 4, !tbaa !10
  %62 = call i32 @avfilter_pad_get_type(ptr noundef %60, i32 noundef %61)
  %63 = call signext i8 @get_media_type_char(i32 noundef %62)
  %64 = load ptr, ptr %9, align 8, !tbaa !8
  %65 = getelementptr inbounds nuw i8, ptr %64, i32 1
  store ptr %65, ptr %9, align 8, !tbaa !8
  store i8 %63, ptr %64, align 1, !tbaa !17
  br label %66

66:                                               ; preds = %59
  %67 = load i32, ptr %12, align 4, !tbaa !10
  %68 = add nsw i32 %67, 1
  store i32 %68, ptr %12, align 4, !tbaa !10
  br label %48, !llvm.loop !99

69:                                               ; preds = %58, %48
  %70 = load i32, ptr %12, align 4, !tbaa !10
  %71 = icmp ne i32 %70, 0
  br i1 %71, label %98, label %72

72:                                               ; preds = %69
  %73 = load i32, ptr %11, align 4, !tbaa !10
  %74 = icmp ne i32 %73, 0
  br i1 %74, label %81, label %75

75:                                               ; preds = %72
  %76 = load ptr, ptr %7, align 8, !tbaa !52
  %77 = getelementptr inbounds nuw %struct.AVFilter, ptr %76, i32 0, i32 5
  %78 = load i32, ptr %77, align 8, !tbaa !58
  %79 = and i32 %78, 1
  %80 = icmp ne i32 %79, 0
  br i1 %80, label %92, label %81

81:                                               ; preds = %75, %72
  %82 = load i32, ptr %11, align 4, !tbaa !10
  %83 = icmp ne i32 %82, 0
  br i1 %83, label %84, label %90

84:                                               ; preds = %81
  %85 = load ptr, ptr %7, align 8, !tbaa !52
  %86 = getelementptr inbounds nuw %struct.AVFilter, ptr %85, i32 0, i32 5
  %87 = load i32, ptr %86, align 8, !tbaa !58
  %88 = and i32 %87, 2
  %89 = icmp ne i32 %88, 0
  br label %90

90:                                               ; preds = %84, %81
  %91 = phi i1 [ false, %81 ], [ %89, %84 ]
  br label %92

92:                                               ; preds = %90, %75
  %93 = phi i1 [ true, %75 ], [ %91, %90 ]
  %94 = select i1 %93, i32 78, i32 124
  %95 = trunc i32 %94 to i8
  %96 = load ptr, ptr %9, align 8, !tbaa !8
  %97 = getelementptr inbounds nuw i8, ptr %96, i32 1
  store ptr %97, ptr %9, align 8, !tbaa !8
  store i8 %95, ptr %96, align 1, !tbaa !17
  br label %98

98:                                               ; preds = %92, %69
  call void @llvm.lifetime.end.p0(i64 4, ptr %14) #11
  br label %99

99:                                               ; preds = %98
  %100 = load i32, ptr %11, align 4, !tbaa !10
  %101 = add nsw i32 %100, 1
  store i32 %101, ptr %11, align 4, !tbaa !10
  br label %21, !llvm.loop !100

102:                                              ; preds = %21
  %103 = load ptr, ptr %9, align 8, !tbaa !8
  store i8 0, ptr %103, align 1, !tbaa !17
  %104 = load ptr, ptr %7, align 8, !tbaa !52
  %105 = getelementptr inbounds nuw %struct.AVFilter, ptr %104, i32 0, i32 5
  %106 = load i32, ptr %105, align 8, !tbaa !58
  %107 = and i32 %106, 196608
  %108 = icmp ne i32 %107, 0
  %109 = select i1 %108, i32 84, i32 46
  %110 = load ptr, ptr %7, align 8, !tbaa !52
  %111 = getelementptr inbounds nuw %struct.AVFilter, ptr %110, i32 0, i32 5
  %112 = load i32, ptr %111, align 8, !tbaa !58
  %113 = and i32 %112, 4
  %114 = icmp ne i32 %113, 0
  %115 = select i1 %114, i32 83, i32 46
  %116 = load ptr, ptr %7, align 8, !tbaa !52
  %117 = getelementptr inbounds nuw %struct.AVFilter, ptr %116, i32 0, i32 0
  %118 = load ptr, ptr %117, align 8, !tbaa !54
  %119 = getelementptr inbounds [64 x i8], ptr %8, i64 0, i64 0
  %120 = load ptr, ptr %7, align 8, !tbaa !52
  %121 = getelementptr inbounds nuw %struct.AVFilter, ptr %120, i32 0, i32 1
  %122 = load ptr, ptr %121, align 8, !tbaa !57
  %123 = call i32 (ptr, ...) @printf(ptr noundef @.str.18, i32 noundef %109, i32 noundef %115, ptr noundef %118, ptr noundef %119, ptr noundef %122)
  br label %16, !llvm.loop !101

124:                                              ; preds = %16
  call void @llvm.lifetime.end.p0(i64 8, ptr %13) #11
  call void @llvm.lifetime.end.p0(i64 4, ptr %12) #11
  call void @llvm.lifetime.end.p0(i64 4, ptr %11) #11
  call void @llvm.lifetime.end.p0(i64 8, ptr %10) #11
  call void @llvm.lifetime.end.p0(i64 8, ptr %9) #11
  call void @llvm.lifetime.end.p0(i64 64, ptr %8) #11
  call void @llvm.lifetime.end.p0(i64 8, ptr %7) #11
  ret i32 0
}