; Function Attrs: nounwind uwtable
define noundef i32 @show_filters(ptr noundef readnone captures(none) %0, ptr noundef readnone captures(none) %1, ptr noundef readnone captures(none) %2) local_unnamed_addr #2 {
  %4 = alloca [64 x i8], align 16
  %5 = alloca ptr, align 8
  call void @llvm.lifetime.start.p0(i64 64, ptr nonnull %4) #17
  call void @llvm.lifetime.start.p0(i64 8, ptr nonnull %5) #17
  store ptr null, ptr %5, align 8, !tbaa !37
  %puts = tail call i32 @puts(ptr nonnull dereferenceable(1) @str.10)
  %6 = call ptr @av_filter_iterate(ptr noundef nonnull %5) #17
  %.not53 = icmp eq ptr %6, null
  br i1 %.not53, label %._crit_edge54, label %.preheader

.preheader:                                       ; preds = %3, %25
  %7 = phi ptr [ %35, %25 ], [ %6, %3 ]
  %8 = getelementptr inbounds nuw i8, ptr %7, i64 40
  br label %9

9:                                                ; preds = %.preheader, %24
  %.0.ptr52 = phi ptr [ %4, %.preheader ], [ %.0.ptr, %24 ]
  %.0.idx51 = phi i64 [ 0, %.preheader ], [ %.3.idx, %24 ]
  %.not36 = phi i1 [ true, %.preheader ], [ false, %24 ]
  %.03250 = phi i32 [ 0, %.preheader ], [ 1, %24 ]
  br i1 %.not36, label %12, label %10

10:                                               ; preds = %9
  %11 = getelementptr inbounds nuw i8, ptr %.0.ptr52, i64 1
  store i8 45, ptr %.0.ptr52, align 1, !tbaa !8
  %.0.add = add nuw nsw i64 %.0.idx51, 2
  store i8 62, ptr %11, align 1, !tbaa !8
  br label %12

12:                                               ; preds = %10, %9
  %.in.v = phi i64 [ 24, %10 ], [ 16, %9 ]
  %.1.idx = phi i64 [ %.0.add, %10 ], [ %.0.idx51, %9 ]
  %.in = getelementptr inbounds nuw i8, ptr %7, i64 %.in.v
  %13 = load ptr, ptr %.in, align 8, !tbaa !80
  %14 = call i32 @avfilter_filter_pad_count(ptr noundef nonnull %7, i32 noundef %.03250) #17
  %.2.ptr43 = getelementptr inbounds nuw i8, ptr %4, i64 %.1.idx
  %15 = icmp eq i32 %14, 0
  %16 = icmp sgt i64 %.1.idx, 59
  %or.cond44 = select i1 %15, i1 true, i1 %16
  br i1 %or.cond44, label %._crit_edge.thread, label %.lr.ph

.lr.ph:                                           ; preds = %12, %.lr.ph
  %.2.ptr47 = phi ptr [ %.2.ptr, %.lr.ph ], [ %.2.ptr43, %12 ]
  %.2.idx46 = phi i64 [ %.2.add, %.lr.ph ], [ %.1.idx, %12 ]
  %.03145 = phi i32 [ %19, %.lr.ph ], [ 0, %12 ]
  %17 = call i32 @avfilter_pad_get_type(ptr noundef %13, i32 noundef %.03145) #17
  %18 = icmp ult i32 %17, 5
  %switch.cast = zext i32 %17 to i40
  %switch.shiftamt = shl nuw nsw i40 %switch.cast, 3
  %switch.downshift = lshr i40 362174234966, %switch.shiftamt
  %switch.masked = trunc i40 %switch.downshift to i8
  %.0.i = select i1 %18, i8 %switch.masked, i8 63
  %.2.add = add nuw nsw i64 %.2.idx46, 1
  store i8 %.0.i, ptr %.2.ptr47, align 1, !tbaa !8
  %19 = add nuw nsw i32 %.03145, 1
  %.2.ptr = getelementptr inbounds nuw i8, ptr %4, i64 %.2.add
  %20 = icmp uge i32 %19, %14
  %21 = icmp sgt i64 %.2.idx46, 58
  %or.cond = select i1 %20, i1 true, i1 %21
  br i1 %or.cond, label %._crit_edge, label %.lr.ph, !llvm.loop !81

._crit_edge:                                      ; preds = %.lr.ph
  br i1 %16, label %._crit_edge.thread, label %24

._crit_edge.thread:                               ; preds = %12, %._crit_edge
  %.2.ptr.lcssa59 = phi ptr [ %.2.ptr, %._crit_edge ], [ %.2.ptr43, %12 ]
  %.2.idx.lcssa58 = phi i64 [ %.2.add, %._crit_edge ], [ %.1.idx, %12 ]
  %22 = load i32, ptr %8, align 8, !tbaa !50
  %. = select i1 %.not36, i32 1, i32 2
  %23 = and i32 %22, %.
  %.not41.not = icmp eq i32 %23, 0
  %.mux = select i1 %.not41.not, i8 124, i8 78
  %.2.add37 = add nuw nsw i64 %.2.idx.lcssa58, 1
  store i8 %.mux, ptr %.2.ptr.lcssa59, align 1, !tbaa !8
  br label %24

24:                                               ; preds = %._crit_edge.thread, %._crit_edge
  %.3.idx = phi i64 [ %.2.add, %._crit_edge ], [ %.2.add37, %._crit_edge.thread ]
  %.0.ptr = getelementptr inbounds nuw i8, ptr %4, i64 %.3.idx
  br i1 %.not36, label %9, label %25, !llvm.loop !82

25:                                               ; preds = %24
  store i8 0, ptr %.0.ptr, align 1, !tbaa !8
  %26 = load i32, ptr %8, align 8, !tbaa !50
  %27 = and i32 %26, 196608
  %.not34 = icmp eq i32 %27, 0
  %28 = select i1 %.not34, i32 46, i32 84
  %29 = and i32 %26, 4
  %.not35 = icmp eq i32 %29, 0
  %30 = select i1 %.not35, i32 46, i32 83
  %31 = load ptr, ptr %7, align 8, !tbaa !46
  %32 = getelementptr inbounds nuw i8, ptr %7, i64 8
  %33 = load ptr, ptr %32, align 8, !tbaa !49
  %34 = call i32 (ptr, ...) @printf(ptr noundef nonnull dereferenceable(1) @.str.18, i32 noundef %28, i32 noundef %30, ptr noundef %31, ptr noundef nonnull %4, ptr noundef %33)
  %35 = call ptr @av_filter_iterate(ptr noundef nonnull %5) #17
  %.not = icmp eq ptr %35, null
  br i1 %.not, label %._crit_edge54, label %.preheader, !llvm.loop !83

._crit_edge54:                                    ; preds = %25, %3
  call void @llvm.lifetime.end.p0(i64 8, ptr nonnull %5) #17
  call void @llvm.lifetime.end.p0(i64 64, ptr nonnull %4) #17
  ret i32 0
}